; ModuleID = 'source-C-CXX/18/892.c'
source_filename = "source-C-CXX/18/892.c"
target datalayout = "e-m:e-p270:32:32-p271:32:32-p272:64:64-i64:64-f80:128-n8:16:32:64-S128"
target triple = "x86_64-pc-linux-gnu"

@.str = private unnamed_addr constant [3 x i8] c"%s\00", align 1
@.str.1 = private unnamed_addr constant [4 x i8] c"%s \00", align 1

; Function Attrs: nounwind sspstrong uwtable
define dso_local i32 @main() local_unnamed_addr #0 {
  %1 = alloca [100 x [100 x i8]], align 16
  %2 = getelementptr inbounds [100 x [100 x i8]], [100 x [100 x i8]]* %1, i64 0, i64 0, i64 0
  %3 = alloca [100 x i8], align 16
  %4 = alloca [100 x i8], align 16
  %5 = alloca [100 x i8], align 16
  %6 = getelementptr inbounds [100 x [100 x i8]], [100 x [100 x i8]]* %1, i64 0, i64 0, i64 0
  call void @llvm.lifetime.start.p0i8(i64 10000, i8* nonnull %6) #7
  %7 = getelementptr inbounds [100 x i8], [100 x i8]* %3, i64 0, i64 0
  call void @llvm.lifetime.start.p0i8(i64 100, i8* nonnull %7) #7
  %8 = getelementptr inbounds [100 x i8], [100 x i8]* %4, i64 0, i64 0
  call void @llvm.lifetime.start.p0i8(i64 100, i8* nonnull %8) #7
  %9 = getelementptr inbounds [100 x i8], [100 x i8]* %5, i64 0, i64 0
  call void @llvm.lifetime.start.p0i8(i64 100, i8* nonnull %9) #7
  %10 = call i32 (i8*, ...) bitcast (i32 (...)* @gets to i32 (i8*, ...)*)(i8* nonnull %7) #7
  call void @llvm.memset.p0i8.i64(i8* noundef nonnull align 16 dereferenceable(10000) %2, i8 0, i64 10000, i1 false)
  %11 = call i64 @strlen(i8* noundef nonnull %7) #8
  %12 = trunc i64 %11 to i32
  %13 = icmp sgt i32 %12, 0
  br i1 %13, label %14, label %38

14:                                               ; preds = %0
  %15 = and i64 %11, 4294967295
  br label %16

16:                                               ; preds = %14, %33
  %17 = phi i64 [ 0, %14 ], [ %36, %33 ]
  %18 = phi i32 [ 0, %14 ], [ %35, %33 ]
  %19 = phi i32 [ 0, %14 ], [ %34, %33 ]
  %20 = getelementptr inbounds [100 x i8], [100 x i8]* %3, i64 0, i64 %17
  %21 = load i8, i8* %20, align 1, !tbaa !5
  switch i8 %21, label %22 [
    i8 10, label %27
    i8 32, label %27
  ]

22:                                               ; preds = %16
  %23 = sext i32 %19 to i64
  %24 = sext i32 %18 to i64
  %25 = getelementptr inbounds [100 x [100 x i8]], [100 x [100 x i8]]* %1, i64 0, i64 %23, i64 %24
  store i8 %21, i8* %25, align 1, !tbaa !5
  %26 = add nsw i32 %18, 1
  br label %33

27:                                               ; preds = %16, %16
  %28 = icmp eq i8 %21, 32
  %29 = zext i1 %28 to i32
  %30 = add nsw i32 %19, %29
  %31 = select i1 %28, i32 0, i32 %18
  %32 = icmp eq i8 %21, 10
  br i1 %32, label %38, label %33

33:                                               ; preds = %22, %27
  %34 = phi i32 [ %19, %22 ], [ %30, %27 ]
  %35 = phi i32 [ %26, %22 ], [ %31, %27 ]
  %36 = add nuw nsw i64 %17, 1
  %37 = icmp eq i64 %36, %15
  br i1 %37, label %38, label %16, !llvm.loop !8

38:                                               ; preds = %33, %27, %0
  %39 = phi i32 [ 0, %0 ], [ %30, %27 ], [ %34, %33 ]
  %40 = call i32 (i8*, ...) @__isoc99_scanf(i8* getelementptr inbounds ([3 x i8], [3 x i8]* @.str, i64 0, i64 0), i8* nonnull %8)
  %41 = call i32 (i8*, ...) @__isoc99_scanf(i8* getelementptr inbounds ([3 x i8], [3 x i8]* @.str, i64 0, i64 0), i8* nonnull %9)
  %42 = icmp slt i32 %39, 0
  br i1 %42, label %66, label %43

43:                                               ; preds = %38
  %44 = add nuw i32 %39, 1
  %45 = zext i32 %44 to i64
  br label %50

46:                                               ; preds = %57
  %47 = icmp sgt i32 %39, 0
  br i1 %47, label %48, label %66

48:                                               ; preds = %46
  %49 = zext i32 %39 to i64
  br label %60

50:                                               ; preds = %43, %57
  %51 = phi i64 [ 0, %43 ], [ %58, %57 ]
  %52 = getelementptr inbounds [100 x [100 x i8]], [100 x [100 x i8]]* %1, i64 0, i64 %51, i64 0
  %53 = call i32 @strcmp(i8* noundef nonnull %52, i8* noundef nonnull %8) #8
  %54 = icmp eq i32 %53, 0
  br i1 %54, label %55, label %57

55:                                               ; preds = %50
  %56 = call i8* @strcpy(i8* noundef nonnull %52, i8* noundef nonnull %9) #7
  br label %57

57:                                               ; preds = %50, %55
  %58 = add nuw nsw i64 %51, 1
  %59 = icmp eq i64 %58, %45
  br i1 %59, label %46, label %50, !llvm.loop !10

60:                                               ; preds = %48, %60
  %61 = phi i64 [ 0, %48 ], [ %64, %60 ]
  %62 = getelementptr inbounds [100 x [100 x i8]], [100 x [100 x i8]]* %1, i64 0, i64 %61, i64 0
  %63 = call i32 (i8*, ...) @printf(i8* nonnull dereferenceable(1) getelementptr inbounds ([4 x i8], [4 x i8]* @.str.1, i64 0, i64 0), i8* nonnull %62)
  %64 = add nuw nsw i64 %61, 1
  %65 = icmp eq i64 %64, %49
  br i1 %65, label %66, label %60, !llvm.loop !11

66:                                               ; preds = %60, %38, %46
  %67 = sext i32 %39 to i64
  %68 = getelementptr inbounds [100 x [100 x i8]], [100 x [100 x i8]]* %1, i64 0, i64 %67, i64 0
  %69 = call i32 (i8*, ...) @printf(i8* nonnull dereferenceable(1) getelementptr inbounds ([3 x i8], [3 x i8]* @.str, i64 0, i64 0), i8* nonnull %68)
  call void @llvm.lifetime.end.p0i8(i64 100, i8* nonnull %9) #7
  call void @llvm.lifetime.end.p0i8(i64 100, i8* nonnull %8) #7
  call void @llvm.lifetime.end.p0i8(i64 100, i8* nonnull %7) #7
  call void @llvm.lifetime.end.p0i8(i64 10000, i8* nonnull %6) #7
  ret i32 0
}

; Function Attrs: argmemonly mustprogress nofree nosync nounwind willreturn
declare void @llvm.lifetime.start.p0i8(i64 immarg, i8* nocapture) #1

declare i32 @gets(...) local_unnamed_addr #2

; Function Attrs: argmemonly mustprogress nofree nounwind readonly willreturn
declare i64 @strlen(i8* nocapture) local_unnamed_addr #3

; Function Attrs: nofree nounwind
declare noundef i32 @__isoc99_scanf(i8* nocapture noundef readonly, ...) local_unnamed_addr #4

; Function Attrs: argmemonly mustprogress nofree nounwind readonly willreturn
declare i32 @strcmp(i8* nocapture, i8* nocapture) local_unnamed_addr #3

; Function Attrs: argmemonly mustprogress nofree nounwind willreturn
declare i8* @strcpy(i8* noalias returned writeonly, i8* noalias nocapture readonly) local_unnamed_addr #5

; Function Attrs: nofree nounwind
declare noundef i32 @printf(i8* nocapture noundef readonly, ...) local_unnamed_addr #4

; Function Attrs: argmemonly mustprogress nofree nosync nounwind willreturn
declare void @llvm.lifetime.end.p0i8(i64 immarg, i8* nocapture) #1

; Function Attrs: argmemonly nofree nounwind willreturn writeonly
declare void @llvm.memset.p0i8.i64(i8* nocapture writeonly, i8, i64, i1 immarg) #6


!llvm.module.flags = !{!0, !1, !2, !3}
!llvm.ident = !{!4}

!0 = !{i32 1, !"wchar_size", i32 4}
!1 = !{i32 7, !"PIC Level", i32 2}
!2 = !{i32 7, !"PIE Level", i32 2}
!3 = !{i32 7, !"uwtable", i32 1}
!4 = !{!"clang version 13.0.0"}
!5 = !{!6, !6, i64 0}
!6 = !{!"omnipotent char", !7, i64 0}
!7 = !{!"Simple C/C++ TBAA"}
!8 = distinct !{!8, !9}
!9 = !{!"llvm.loop.mustprogress"}
!10 = distinct !{!10, !9}
!11 = distinct !{!11, !9}
